; ModuleID = '6/4100.c'
source_filename = "6/4100.c"
target datalayout = "e-m:e-p270:32:32-p271:32:32-p272:64:64-i64:64-f80:128-n8:16:32:64-S128"
target triple = "x86_64-pc-linux-gnu"

@.str = private unnamed_addr constant [3 x i8] c"%d\00", align 1
@.str.1 = private unnamed_addr constant [5 x i8] c"%d%d\00", align 1
@.str.2 = private unnamed_addr constant [4 x i8] c"%d\0A\00", align 1

; Function Attrs: noinline nounwind uwtable
define dso_local i32 @main() #0 {
  %1 = alloca i32, align 4
  %2 = alloca i32, align 4
  %3 = alloca [100 x i32], align 16
  %4 = alloca [100 x i32], align 16
  %5 = alloca i32, align 4
  %6 = alloca i32, align 4
  %7 = alloca [100 x [100 x i32]], align 16
  %8 = alloca i32, align 4
  %9 = alloca i32, align 4
  store i32 0, i32* %1, align 4
  store i32 0, i32* %8, align 4
  %10 = call i32 (i8*, ...) @__isoc99_scanf(i8* getelementptr inbounds ([3 x i8], [3 x i8]* @.str, i64 0, i64 0), i32* %2)
  store i32 0, i32* %9, align 4
  br label %11

11:                                               ; preds = %119, %0
  %12 = load i32, i32* %9, align 4
  %13 = load i32, i32* %2, align 4
  %14 = icmp slt i32 %12, %13
  br i1 %14, label %15, label %122

15:                                               ; preds = %11
  %16 = load i32, i32* %9, align 4
  %17 = sext i32 %16 to i64
  %18 = getelementptr inbounds [100 x i32], [100 x i32]* %3, i64 0, i64 %17
  %19 = load i32, i32* %9, align 4
  %20 = sext i32 %19 to i64
  %21 = getelementptr inbounds [100 x i32], [100 x i32]* %4, i64 0, i64 %20
  %22 = call i32 (i8*, ...) @__isoc99_scanf(i8* getelementptr inbounds ([5 x i8], [5 x i8]* @.str.1, i64 0, i64 0), i32* %18, i32* %21)
  store i32 0, i32* %5, align 4
  br label %23

23:                                               ; preds = %50, %15
  %24 = load i32, i32* %5, align 4
  %25 = load i32, i32* %9, align 4
  %26 = sext i32 %25 to i64
  %27 = getelementptr inbounds [100 x i32], [100 x i32]* %3, i64 0, i64 %26
  %28 = load i32, i32* %27, align 4
  %29 = icmp slt i32 %24, %28
  br i1 %29, label %30, label %53

30:                                               ; preds = %23
  store i32 0, i32* %6, align 4
  br label %31

31:                                               ; preds = %46, %30
  %32 = load i32, i32* %6, align 4
  %33 = load i32, i32* %9, align 4
  %34 = sext i32 %33 to i64
  %35 = getelementptr inbounds [100 x i32], [100 x i32]* %4, i64 0, i64 %34
  %36 = load i32, i32* %35, align 4
  %37 = icmp slt i32 %32, %36
  br i1 %37, label %38, label %49

38:                                               ; preds = %31
  %39 = load i32, i32* %5, align 4
  %40 = sext i32 %39 to i64
  %41 = getelementptr inbounds [100 x [100 x i32]], [100 x [100 x i32]]* %7, i64 0, i64 %40
  %42 = load i32, i32* %6, align 4
  %43 = sext i32 %42 to i64
  %44 = getelementptr inbounds [100 x i32], [100 x i32]* %41, i64 0, i64 %43
  %45 = call i32 (i8*, ...) @__isoc99_scanf(i8* getelementptr inbounds ([3 x i8], [3 x i8]* @.str, i64 0, i64 0), i32* %44)
  br label %46

46:                                               ; preds = %38
  %47 = load i32, i32* %6, align 4
  %48 = add nsw i32 %47, 1
  store i32 %48, i32* %6, align 4
  br label %31

49:                                               ; preds = %31
  br label %50

50:                                               ; preds = %49
  %51 = load i32, i32* %5, align 4
  %52 = add nsw i32 %51, 1
  store i32 %52, i32* %5, align 4
  br label %23

53:                                               ; preds = %23
  store i32 0, i32* %6, align 4
  br label %54

54:                                               ; preds = %81, %53
  %55 = load i32, i32* %6, align 4
  %56 = load i32, i32* %9, align 4
  %57 = sext i32 %56 to i64
  %58 = getelementptr inbounds [100 x i32], [100 x i32]* %4, i64 0, i64 %57
  %59 = load i32, i32* %58, align 4
  %60 = icmp slt i32 %55, %59
  br i1 %60, label %61, label %84

61:                                               ; preds = %54
  %62 = load i32, i32* %8, align 4
  %63 = getelementptr inbounds [100 x [100 x i32]], [100 x [100 x i32]]* %7, i64 0, i64 0
  %64 = load i32, i32* %6, align 4
  %65 = sext i32 %64 to i64
  %66 = getelementptr inbounds [100 x i32], [100 x i32]* %63, i64 0, i64 %65
  %67 = load i32, i32* %66, align 4
  %68 = add nsw i32 %62, %67
  %69 = load i32, i32* %9, align 4
  %70 = sext i32 %69 to i64
  %71 = getelementptr inbounds [100 x i32], [100 x i32]* %3, i64 0, i64 %70
  %72 = load i32, i32* %71, align 4
  %73 = sub nsw i32 %72, 1
  %74 = sext i32 %73 to i64
  %75 = getelementptr inbounds [100 x [100 x i32]], [100 x [100 x i32]]* %7, i64 0, i64 %74
  %76 = load i32, i32* %6, align 4
  %77 = sext i32 %76 to i64
  %78 = getelementptr inbounds [100 x i32], [100 x i32]* %75, i64 0, i64 %77
  %79 = load i32, i32* %78, align 4
  %80 = add nsw i32 %68, %79
  store i32 %80, i32* %8, align 4
  br label %81

81:                                               ; preds = %61
  %82 = load i32, i32* %6, align 4
  %83 = add nsw i32 %82, 1
  store i32 %83, i32* %6, align 4
  br label %54

84:                                               ; preds = %54
  store i32 1, i32* %5, align 4
  br label %85

85:                                               ; preds = %113, %84
  %86 = load i32, i32* %5, align 4
  %87 = load i32, i32* %9, align 4
  %88 = sext i32 %87 to i64
  %89 = getelementptr inbounds [100 x i32], [100 x i32]* %3, i64 0, i64 %88
  %90 = load i32, i32* %89, align 4
  %91 = sub nsw i32 %90, 1
  %92 = icmp slt i32 %86, %91
  br i1 %92, label %93, label %116

93:                                               ; preds = %85
  %94 = load i32, i32* %8, align 4
  %95 = load i32, i32* %5, align 4
  %96 = sext i32 %95 to i64
  %97 = getelementptr inbounds [100 x [100 x i32]], [100 x [100 x i32]]* %7, i64 0, i64 %96
  %98 = getelementptr inbounds [100 x i32], [100 x i32]* %97, i64 0, i64 0
  %99 = load i32, i32* %98, align 16
  %100 = add nsw i32 %94, %99
  %101 = load i32, i32* %5, align 4
  %102 = sext i32 %101 to i64
  %103 = getelementptr inbounds [100 x [100 x i32]], [100 x [100 x i32]]* %7, i64 0, i64 %102
  %104 = load i32, i32* %9, align 4
  %105 = sext i32 %104 to i64
  %106 = getelementptr inbounds [100 x i32], [100 x i32]* %4, i64 0, i64 %105
  %107 = load i32, i32* %106, align 4
  %108 = sub nsw i32 %107, 1
  %109 = sext i32 %108 to i64
  %110 = getelementptr inbounds [100 x i32], [100 x i32]* %103, i64 0, i64 %109
  %111 = load i32, i32* %110, align 4
  %112 = add nsw i32 %100, %111
  store i32 %112, i32* %8, align 4
  br label %113

113:                                              ; preds = %93
  %114 = load i32, i32* %5, align 4
  %115 = add nsw i32 %114, 1
  store i32 %115, i32* %5, align 4
  br label %85

116:                                              ; preds = %85
  %117 = load i32, i32* %8, align 4
  %118 = call i32 (i8*, ...) @printf(i8* getelementptr inbounds ([4 x i8], [4 x i8]* @.str.2, i64 0, i64 0), i32 %117)
  store i32 0, i32* %8, align 4
  br label %119

119:                                              ; preds = %116
  %120 = load i32, i32* %9, align 4
  %121 = add nsw i32 %120, 1
  store i32 %121, i32* %9, align 4
  br label %11

122:                                              ; preds = %11
  ret i32 0
}

declare dso_local i32 @__isoc99_scanf(i8*, ...) #1

declare dso_local i32 @printf(i8*, ...) #1


!llvm.module.flags = !{!0}
!llvm.ident = !{!1}

!0 = !{i32 1, !"wchar_size", i32 4}
!1 = !{!"clang version 10.0.0-4ubuntu1 "}
